; Function Attrs: nounwind uwtable
define ptr @l_Lean_Elab_OpenDecl_elabOpenDecl___rarg___lambda__7(i64 noundef %0, i64 noundef %1, ptr noundef %2, ptr noundef %3, ptr noundef %4, ptr noundef %5, ptr noundef %6, ptr noundef %7, ptr readnone captures(none) %8) local_unnamed_addr #0 {
  %10 = tail call ptr @l_Array_mapMUnsafe_map___at_Lean_Elab_OpenDecl_elabOpenDecl___spec__52(i64 noundef %0, i64 noundef %1, ptr noundef %2)
  %11 = tail call ptr @lean_array_to_list(ptr noundef %10) #6
  tail call void @lean_inc_heartbeat() #6
  %12 = tail call noalias ptr @mi_malloc_small(i64 noundef 24) #6
  %13 = icmp eq ptr %12, null
  br i1 %13, label %14, label %lean_alloc_ctor.exit

14:                                               ; preds = %9
  tail call void @lean_internal_panic_out_of_memory() #7
  unreachable

lean_alloc_ctor.exit:                             ; preds = %9
  %15 = getelementptr inbounds nuw i8, ptr %12, i64 4
  store i32 1, ptr %12, align 4, !tbaa !8
  store i32 131096, ptr %15, align 4
  %16 = getelementptr inbounds nuw i8, ptr %12, i64 8
  store ptr %3, ptr %16, align 8, !tbaa !4
  %17 = getelementptr inbounds nuw i8, ptr %12, i64 16
  store ptr %11, ptr %17, align 8, !tbaa !4
  %18 = ptrtoint ptr %5 to i64
  %19 = and i64 %18, 1
  %.not = icmp eq i64 %19, 0
  br i1 %.not, label %20, label %lean_inc.exit

20:                                               ; preds = %lean_alloc_ctor.exit
  %.val.i = load i32, ptr %5, align 4, !tbaa !8
  %21 = icmp sgt i32 %.val.i, 0
  br i1 %21, label %22, label %24, !prof !11

22:                                               ; preds = %20
  %23 = add nuw i32 %.val.i, 1
  store i32 %23, ptr %5, align 4, !tbaa !8
  br label %lean_inc.exit

24:                                               ; preds = %20
  %.not.i = icmp eq i32 %.val.i, 0
  br i1 %.not.i, label %lean_inc.exit, label %25

25:                                               ; preds = %24
  tail call void @lean_inc_ref_cold(ptr noundef nonnull %5) #6
  br label %lean_inc.exit

lean_inc.exit:                                    ; preds = %25, %24, %22, %lean_alloc_ctor.exit
  %26 = tail call ptr @l___private_Lean_Elab_Open_0__Lean_Elab_OpenDecl_addOpenDecl___rarg(ptr noundef %4, ptr noundef nonnull %12, ptr noundef %5)
  tail call void @lean_inc_heartbeat() #6
  %27 = tail call noalias ptr @mi_malloc_small(i64 noundef 40) #6
  %28 = icmp eq ptr %27, null
  br i1 %28, label %29, label %lean_alloc_closure.exit

29:                                               ; preds = %lean_inc.exit
  tail call void @lean_internal_panic_out_of_memory() #7
  unreachable

lean_alloc_closure.exit:                          ; preds = %lean_inc.exit
  %30 = getelementptr inbounds nuw i8, ptr %27, i64 4
  store i32 1, ptr %27, align 4, !tbaa !8
  store i32 -184549336, ptr %30, align 4
  %31 = getelementptr inbounds nuw i8, ptr %27, i64 8
  store ptr @l_ReaderT_bind___at_Lean_Elab_OpenDecl_instMonadResolveNameM___spec__1___rarg___lambda__1, ptr %31, align 8, !tbaa !4
  %32 = getelementptr inbounds nuw i8, ptr %27, i64 16
  store i16 3, ptr %32, align 8, !tbaa !12
  %33 = getelementptr inbounds nuw i8, ptr %27, i64 18
  store i16 2, ptr %33, align 2, !tbaa !12
  %34 = getelementptr inbounds nuw i8, ptr %27, i64 24
  store ptr %6, ptr %34, align 8, !tbaa !4
  %35 = getelementptr inbounds nuw i8, ptr %27, i64 32
  store ptr %5, ptr %35, align 8, !tbaa !4
  %36 = tail call ptr @lean_apply_4(ptr noundef %7, ptr noundef nonnull inttoptr (i64 1 to ptr), ptr noundef nonnull inttoptr (i64 1 to ptr), ptr noundef %26, ptr noundef nonnull %27) #6
  ret ptr %36
}